; ModuleID = '51/914.c'
source_filename = "51/914.c"
target datalayout = "e-m:e-p270:32:32-p271:32:32-p272:64:64-i64:64-f80:128-n8:16:32:64-S128"
target triple = "x86_64-pc-linux-gnu"

@.str = private unnamed_addr constant [3 x i8] c"%d\00", align 1
@.str.1 = private unnamed_addr constant [3 x i8] c"%s\00", align 1
@.str.2 = private unnamed_addr constant [3 x i8] c"NO\00", align 1
@.str.3 = private unnamed_addr constant [4 x i8] c"%d\0A\00", align 1
@.str.4 = private unnamed_addr constant [4 x i8] c"%s\0A\00", align 1

; Function Attrs: noinline nounwind uwtable
define dso_local i32 @main() #0 {
  %1 = alloca i32, align 4
  %2 = alloca i32, align 4
  %3 = alloca i32, align 4
  %4 = alloca i32, align 4
  %5 = alloca i32, align 4
  %6 = alloca i32, align 4
  %7 = alloca i32, align 4
  %8 = alloca i32, align 4
  %9 = alloca i32, align 4
  %10 = alloca i32, align 4
  %11 = alloca [505 x i8], align 16
  %12 = alloca [10 x i8], align 1
  %13 = alloca [700 x [10 x i8]], align 16
  %14 = alloca [700 x i32], align 16
  store i32 0, i32* %1, align 4
  %15 = bitcast [700 x i32]* %14 to i8*
  call void @llvm.memset.p0i8.i64(i8* align 16 %15, i8 0, i64 2800, i1 false)
  %16 = call i32 (i8*, ...) @__isoc99_scanf(i8* getelementptr inbounds ([3 x i8], [3 x i8]* @.str, i64 0, i64 0), i32* %2)
  %17 = getelementptr inbounds [505 x i8], [505 x i8]* %11, i64 0, i64 0
  %18 = call i32 (i8*, ...) @__isoc99_scanf(i8* getelementptr inbounds ([3 x i8], [3 x i8]* @.str.1, i64 0, i64 0), i8* %17)
  %19 = getelementptr inbounds [505 x i8], [505 x i8]* %11, i64 0, i64 0
  %20 = call i64 @strlen(i8* %19) #5
  %21 = trunc i64 %20 to i32
  store i32 %21, i32* %7, align 4
  %22 = load i32, i32* %7, align 4
  %23 = load i32, i32* %2, align 4
  %24 = sub nsw i32 %22, %23
  %25 = add nsw i32 %24, 1
  store i32 %25, i32* %9, align 4
  store i32 0, i32* %4, align 4
  br label %26

26:                                               ; preds = %59, %0
  %27 = load i32, i32* %4, align 4
  %28 = load i32, i32* %9, align 4
  %29 = icmp slt i32 %27, %28
  br i1 %29, label %30, label %62

30:                                               ; preds = %26
  %31 = load i32, i32* %4, align 4
  store i32 %31, i32* %6, align 4
  store i32 0, i32* %5, align 4
  br label %32

32:                                               ; preds = %55, %30
  %33 = load i32, i32* %5, align 4
  %34 = load i32, i32* %2, align 4
  %35 = icmp slt i32 %33, %34
  br i1 %35, label %36, label %58

36:                                               ; preds = %32
  %37 = load i32, i32* %6, align 4
  %38 = sext i32 %37 to i64
  %39 = getelementptr inbounds [505 x i8], [505 x i8]* %11, i64 0, i64 %38
  %40 = load i8, i8* %39, align 1
  %41 = load i32, i32* %4, align 4
  %42 = sext i32 %41 to i64
  %43 = getelementptr inbounds [700 x [10 x i8]], [700 x [10 x i8]]* %13, i64 0, i64 %42
  %44 = load i32, i32* %5, align 4
  %45 = sext i32 %44 to i64
  %46 = getelementptr inbounds [10 x i8], [10 x i8]* %43, i64 0, i64 %45
  store i8 %40, i8* %46, align 1
  %47 = load i32, i32* %4, align 4
  %48 = sext i32 %47 to i64
  %49 = getelementptr inbounds [700 x [10 x i8]], [700 x [10 x i8]]* %13, i64 0, i64 %48
  %50 = load i32, i32* %2, align 4
  %51 = sext i32 %50 to i64
  %52 = getelementptr inbounds [10 x i8], [10 x i8]* %49, i64 0, i64 %51
  store i8 0, i8* %52, align 1
  %53 = load i32, i32* %6, align 4
  %54 = add nsw i32 %53, 1
  store i32 %54, i32* %6, align 4
  br label %55

55:                                               ; preds = %36
  %56 = load i32, i32* %5, align 4
  %57 = add nsw i32 %56, 1
  store i32 %57, i32* %5, align 4
  br label %32

58:                                               ; preds = %32
  br label %59

59:                                               ; preds = %58
  %60 = load i32, i32* %4, align 4
  %61 = add nsw i32 %60, 1
  store i32 %61, i32* %4, align 4
  br label %26

62:                                               ; preds = %26
  store i32 0, i32* %4, align 4
  br label %63

63:                                               ; preds = %94, %62
  %64 = load i32, i32* %4, align 4
  %65 = load i32, i32* %9, align 4
  %66 = icmp slt i32 %64, %65
  br i1 %66, label %67, label %97

67:                                               ; preds = %63
  store i32 0, i32* %6, align 4
  br label %68

68:                                               ; preds = %90, %67
  %69 = load i32, i32* %6, align 4
  %70 = load i32, i32* %4, align 4
  %71 = icmp slt i32 %69, %70
  br i1 %71, label %72, label %93

72:                                               ; preds = %68
  %73 = load i32, i32* %4, align 4
  %74 = sext i32 %73 to i64
  %75 = getelementptr inbounds [700 x [10 x i8]], [700 x [10 x i8]]* %13, i64 0, i64 %74
  %76 = getelementptr inbounds [10 x i8], [10 x i8]* %75, i64 0, i64 0
  %77 = load i32, i32* %6, align 4
  %78 = sext i32 %77 to i64
  %79 = getelementptr inbounds [700 x [10 x i8]], [700 x [10 x i8]]* %13, i64 0, i64 %78
  %80 = getelementptr inbounds [10 x i8], [10 x i8]* %79, i64 0, i64 0
  %81 = call i32 @strcmp(i8* %76, i8* %80) #5
  %82 = icmp eq i32 %81, 0
  br i1 %82, label %83, label %89

83:                                               ; preds = %72
  %84 = load i32, i32* %6, align 4
  %85 = sext i32 %84 to i64
  %86 = getelementptr inbounds [700 x i32], [700 x i32]* %14, i64 0, i64 %85
  %87 = load i32, i32* %86, align 4
  %88 = add nsw i32 %87, 1
  store i32 %88, i32* %86, align 4
  br label %93

89:                                               ; preds = %72
  br label %90

90:                                               ; preds = %89
  %91 = load i32, i32* %6, align 4
  %92 = add nsw i32 %91, 1
  store i32 %92, i32* %6, align 4
  br label %68

93:                                               ; preds = %83, %68
  br label %94

94:                                               ; preds = %93
  %95 = load i32, i32* %4, align 4
  %96 = add nsw i32 %95, 1
  store i32 %96, i32* %4, align 4
  br label %63

97:                                               ; preds = %63
  store i32 0, i32* %4, align 4
  br label %98

98:                                               ; preds = %165, %97
  %99 = load i32, i32* %4, align 4
  %100 = load i32, i32* %9, align 4
  %101 = icmp slt i32 %99, %100
  br i1 %101, label %102, label %168

102:                                              ; preds = %98
  store i32 0, i32* %5, align 4
  br label %103

103:                                              ; preds = %161, %102
  %104 = load i32, i32* %5, align 4
  %105 = load i32, i32* %9, align 4
  %106 = sub nsw i32 %105, 1
  %107 = icmp slt i32 %104, %106
  br i1 %107, label %108, label %164

108:                                              ; preds = %103
  %109 = load i32, i32* %5, align 4
  %110 = sext i32 %109 to i64
  %111 = getelementptr inbounds [700 x i32], [700 x i32]* %14, i64 0, i64 %110
  %112 = load i32, i32* %111, align 4
  %113 = load i32, i32* %5, align 4
  %114 = add nsw i32 %113, 1
  %115 = sext i32 %114 to i64
  %116 = getelementptr inbounds [700 x i32], [700 x i32]* %14, i64 0, i64 %115
  %117 = load i32, i32* %116, align 4
  %118 = icmp slt i32 %112, %117
  br i1 %118, label %119, label %160

119:                                              ; preds = %108
  %120 = load i32, i32* %5, align 4
  %121 = sext i32 %120 to i64
  %122 = getelementptr inbounds [700 x i32], [700 x i32]* %14, i64 0, i64 %121
  %123 = load i32, i32* %122, align 4
  store i32 %123, i32* %10, align 4
  %124 = getelementptr inbounds [10 x i8], [10 x i8]* %12, i64 0, i64 0
  %125 = load i32, i32* %5, align 4
  %126 = sext i32 %125 to i64
  %127 = getelementptr inbounds [700 x [10 x i8]], [700 x [10 x i8]]* %13, i64 0, i64 %126
  %128 = getelementptr inbounds [10 x i8], [10 x i8]* %127, i64 0, i64 0
  %129 = call i8* @strcpy(i8* %124, i8* %128) #6
  %130 = load i32, i32* %5, align 4
  %131 = add nsw i32 %130, 1
  %132 = sext i32 %131 to i64
  %133 = getelementptr inbounds [700 x i32], [700 x i32]* %14, i64 0, i64 %132
  %134 = load i32, i32* %133, align 4
  %135 = load i32, i32* %5, align 4
  %136 = sext i32 %135 to i64
  %137 = getelementptr inbounds [700 x i32], [700 x i32]* %14, i64 0, i64 %136
  store i32 %134, i32* %137, align 4
  %138 = load i32, i32* %5, align 4
  %139 = sext i32 %138 to i64
  %140 = getelementptr inbounds [700 x [10 x i8]], [700 x [10 x i8]]* %13, i64 0, i64 %139
  %141 = getelementptr inbounds [10 x i8], [10 x i8]* %140, i64 0, i64 0
  %142 = load i32, i32* %5, align 4
  %143 = add nsw i32 %142, 1
  %144 = sext i32 %143 to i64
  %145 = getelementptr inbounds [700 x [10 x i8]], [700 x [10 x i8]]* %13, i64 0, i64 %144
  %146 = getelementptr inbounds [10 x i8], [10 x i8]* %145, i64 0, i64 0
  %147 = call i8* @strcpy(i8* %141, i8* %146) #6
  %148 = load i32, i32* %10, align 4
  %149 = load i32, i32* %5, align 4
  %150 = add nsw i32 %149, 1
  %151 = sext i32 %150 to i64
  %152 = getelementptr inbounds [700 x i32], [700 x i32]* %14, i64 0, i64 %151
  store i32 %148, i32* %152, align 4
  %153 = load i32, i32* %5, align 4
  %154 = add nsw i32 %153, 1
  %155 = sext i32 %154 to i64
  %156 = getelementptr inbounds [700 x [10 x i8]], [700 x [10 x i8]]* %13, i64 0, i64 %155
  %157 = getelementptr inbounds [10 x i8], [10 x i8]* %156, i64 0, i64 0
  %158 = getelementptr inbounds [10 x i8], [10 x i8]* %12, i64 0, i64 0
  %159 = call i8* @strcpy(i8* %157, i8* %158) #6
  br label %160

160:                                              ; preds = %119, %108
  br label %161

161:                                              ; preds = %160
  %162 = load i32, i32* %5, align 4
  %163 = add nsw i32 %162, 1
  store i32 %163, i32* %5, align 4
  br label %103

164:                                              ; preds = %103
  br label %165

165:                                              ; preds = %164
  %166 = load i32, i32* %4, align 4
  %167 = add nsw i32 %166, 1
  store i32 %167, i32* %4, align 4
  br label %98

168:                                              ; preds = %98
  %169 = getelementptr inbounds [700 x i32], [700 x i32]* %14, i64 0, i64 0
  %170 = load i32, i32* %169, align 16
  %171 = icmp eq i32 %170, 0
  br i1 %171, label %172, label %174

172:                                              ; preds = %168
  %173 = call i32 (i8*, ...) @printf(i8* getelementptr inbounds ([3 x i8], [3 x i8]* @.str.2, i64 0, i64 0))
  br label %224

174:                                              ; preds = %168
  store i32 0, i32* %4, align 4
  br label %175

175:                                              ; preds = %195, %174
  %176 = load i32, i32* %4, align 4
  %177 = load i32, i32* %9, align 4
  %178 = sub nsw i32 %177, 1
  %179 = icmp slt i32 %176, %178
  br i1 %179, label %180, label %198

180:                                              ; preds = %175
  %181 = load i32, i32* %4, align 4
  %182 = sext i32 %181 to i64
  %183 = getelementptr inbounds [700 x i32], [700 x i32]* %14, i64 0, i64 %182
  %184 = load i32, i32* %183, align 4
  %185 = load i32, i32* %4, align 4
  %186 = add nsw i32 %185, 1
  %187 = sext i32 %186 to i64
  %188 = getelementptr inbounds [700 x i32], [700 x i32]* %14, i64 0, i64 %187
  %189 = load i32, i32* %188, align 4
  %190 = icmp ne i32 %184, %189
  br i1 %190, label %191, label %194

191:                                              ; preds = %180
  %192 = load i32, i32* %4, align 4
  %193 = add nsw i32 %192, 1
  store i32 %193, i32* %3, align 4
  br label %198

194:                                              ; preds = %180
  br label %195

195:                                              ; preds = %194
  %196 = load i32, i32* %4, align 4
  %197 = add nsw i32 %196, 1
  store i32 %197, i32* %4, align 4
  br label %175

198:                                              ; preds = %191, %175
  %199 = load i32, i32* %4, align 4
  %200 = load i32, i32* %9, align 4
  %201 = sub nsw i32 %200, 1
  %202 = icmp eq i32 %199, %201
  br i1 %202, label %203, label %205

203:                                              ; preds = %198
  %204 = load i32, i32* %9, align 4
  store i32 %204, i32* %3, align 4
  br label %205

205:                                              ; preds = %203, %198
  %206 = getelementptr inbounds [700 x i32], [700 x i32]* %14, i64 0, i64 0
  %207 = load i32, i32* %206, align 16
  %208 = add nsw i32 %207, 1
  %209 = call i32 (i8*, ...) @printf(i8* getelementptr inbounds ([4 x i8], [4 x i8]* @.str.3, i64 0, i64 0), i32 %208)
  store i32 0, i32* %8, align 4
  br label %210

210:                                              ; preds = %220, %205
  %211 = load i32, i32* %8, align 4
  %212 = load i32, i32* %3, align 4
  %213 = icmp slt i32 %211, %212
  br i1 %213, label %214, label %223

214:                                              ; preds = %210
  %215 = load i32, i32* %8, align 4
  %216 = sext i32 %215 to i64
  %217 = getelementptr inbounds [700 x [10 x i8]], [700 x [10 x i8]]* %13, i64 0, i64 %216
  %218 = getelementptr inbounds [10 x i8], [10 x i8]* %217, i64 0, i64 0
  %219 = call i32 (i8*, ...) @printf(i8* getelementptr inbounds ([4 x i8], [4 x i8]* @.str.4, i64 0, i64 0), i8* %218)
  br label %220

220:                                              ; preds = %214
  %221 = load i32, i32* %8, align 4
  %222 = add nsw i32 %221, 1
  store i32 %222, i32* %8, align 4
  br label %210

223:                                              ; preds = %210
  br label %224

224:                                              ; preds = %223, %172
  ret i32 0
}

; Function Attrs: argmemonly nounwind willreturn
declare void @llvm.memset.p0i8.i64(i8* nocapture writeonly, i8, i64, i1 immarg) #1

declare dso_local i32 @__isoc99_scanf(i8*, ...) #2

; Function Attrs: nounwind readonly
declare dso_local i64 @strlen(i8*) #3

; Function Attrs: nounwind readonly
declare dso_local i32 @strcmp(i8*, i8*) #3

; Function Attrs: nounwind
declare dso_local i8* @strcpy(i8*, i8*) #4

declare dso_local i32 @printf(i8*, ...) #2


!llvm.module.flags = !{!0}
!llvm.ident = !{!1}

!0 = !{i32 1, !"wchar_size", i32 4}
!1 = !{!"clang version 10.0.0-4ubuntu1 "}
